; Function Attrs: mustprogress uwtable
define noundef zeroext i1 @_ZNK32pxrInternal_v0_24__pxrReserved__16UsdUsdFileFormat4ReadEPNS_8SdfLayerERKNSt7__cxx1112basic_stringIcSt11char_traitsIcESaIcEEEb(ptr noundef nonnull align 8 dereferenceable(113) %0, ptr noundef %1, ptr noundef nonnull align 8 dereferenceable(32) %2, i1 noundef zeroext %3) unnamed_addr #1 align 2 personality ptr @__gxx_personality_v0 {
  %5 = alloca %"class.pxrInternal_v0_24__pxrReserved__::TraceKey", align 8
  %6 = alloca %"class.pxrInternal_v0_24__pxrReserved__::TraceKey", align 8
  %7 = load atomic i32, ptr @_ZN32pxrInternal_v0_24__pxrReserved__14TraceCollector10_isEnabledE acquire, align 4
  %8 = icmp eq i32 %7, 1
  br i1 %8, label %9, label %_ZN32pxrInternal_v0_24__pxrReserved__14TraceScopeAutoC2ERKNS_18TraceStaticKeyDataE.exit

9:                                                ; preds = %4
  fence syncscope("singlethread") seq_cst
  %10 = tail call { i32, i32 } asm sideeffect "lfence\0A\09rdtsc\0A\09lfence", "={ax},={dx},~{dirflag},~{fpsr},~{flags}"() #19, !srcloc !18
  %11 = extractvalue { i32, i32 } %10, 0
  %12 = extractvalue { i32, i32 } %10, 1
  %13 = zext i32 %12 to i64
  %14 = shl nuw i64 %13, 32
  %15 = zext i32 %11 to i64
  br label %_ZN32pxrInternal_v0_24__pxrReserved__14TraceScopeAutoC2ERKNS_18TraceStaticKeyDataE.exit

_ZN32pxrInternal_v0_24__pxrReserved__14TraceScopeAutoC2ERKNS_18TraceStaticKeyDataE.exit: ; preds = %4, %9
  %.sroa.7.0 = phi i64 [ %15, %9 ], [ 0, %4 ]
  %.sroa.11.0 = phi i64 [ %14, %9 ], [ 0, %4 ]
  %16 = invoke noundef zeroext i1 @_ZNK32pxrInternal_v0_24__pxrReserved__16UsdUsdFileFormat11_ReadHelperILb0EEEbPNS_8SdfLayerERKNSt7__cxx1112basic_stringIcSt11char_traitsIcESaIcEEEb(ptr noundef nonnull align 8 dereferenceable(113) %0, ptr noundef %1, ptr noundef nonnull align 8 dereferenceable(32) %2, i1 noundef zeroext %3)
          to label %17 unwind label %20

17:                                               ; preds = %_ZN32pxrInternal_v0_24__pxrReserved__14TraceScopeAutoC2ERKNS_18TraceStaticKeyDataE.exit
  call void @llvm.lifetime.start.p0(i64 8, ptr nonnull %6)
  br i1 %8, label %18, label %_ZN32pxrInternal_v0_24__pxrReserved__14TraceScopeAutoD2Ev.exit

18:                                               ; preds = %17
  fence syncscope("singlethread") seq_cst
  %19 = tail call noundef i64 asm sideeffect "rdtscp\0A\09shl $$32, %rdx\0A\09or %rdx, $0\0A\09lfence", "={ax},~{rcx},~{rdx},~{cc},~{dirflag},~{fpsr},~{flags}"() #19, !srcloc !19
  store ptr @_ZZNK32pxrInternal_v0_24__pxrReserved__16UsdUsdFileFormat4ReadEPNS_8SdfLayerERKNSt7__cxx1112basic_stringIcSt11char_traitsIcESaIcEEEbE16TraceKeyData_201, ptr %6, align 8
  %.sroa.7.12.insert.insert = or disjoint i64 %.sroa.11.0, %.sroa.7.0
  call void @_ZN32pxrInternal_v0_24__pxrReserved__14TraceCollector5ScopeERKNS_8TraceKeyEmm(ptr noundef nonnull align 8 dereferenceable(8) %6, i64 noundef %.sroa.7.12.insert.insert, i64 noundef %19) #19
  br label %_ZN32pxrInternal_v0_24__pxrReserved__14TraceScopeAutoD2Ev.exit

_ZN32pxrInternal_v0_24__pxrReserved__14TraceScopeAutoD2Ev.exit: ; preds = %17, %18
  call void @llvm.lifetime.end.p0(i64 8, ptr nonnull %6)
  ret i1 %16

20:                                               ; preds = %_ZN32pxrInternal_v0_24__pxrReserved__14TraceScopeAutoC2ERKNS_18TraceStaticKeyDataE.exit
  %21 = landingpad { ptr, i32 }
          cleanup
  call void @llvm.lifetime.start.p0(i64 8, ptr nonnull %5)
  br i1 %8, label %22, label %_ZN32pxrInternal_v0_24__pxrReserved__14TraceScopeAutoD2Ev.exit5

22:                                               ; preds = %20
  fence syncscope("singlethread") seq_cst
  %23 = tail call noundef i64 asm sideeffect "rdtscp\0A\09shl $$32, %rdx\0A\09or %rdx, $0\0A\09lfence", "={ax},~{rcx},~{rdx},~{cc},~{dirflag},~{fpsr},~{flags}"() #19, !srcloc !19
  store ptr @_ZZNK32pxrInternal_v0_24__pxrReserved__16UsdUsdFileFormat4ReadEPNS_8SdfLayerERKNSt7__cxx1112basic_stringIcSt11char_traitsIcESaIcEEEbE16TraceKeyData_201, ptr %5, align 8
  %.sroa.7.12.insert.insert11 = or disjoint i64 %.sroa.11.0, %.sroa.7.0
  call void @_ZN32pxrInternal_v0_24__pxrReserved__14TraceCollector5ScopeERKNS_8TraceKeyEmm(ptr noundef nonnull align 8 dereferenceable(8) %5, i64 noundef %.sroa.7.12.insert.insert11, i64 noundef %23) #19
  br label %_ZN32pxrInternal_v0_24__pxrReserved__14TraceScopeAutoD2Ev.exit5

_ZN32pxrInternal_v0_24__pxrReserved__14TraceScopeAutoD2Ev.exit5: ; preds = %20, %22
  call void @llvm.lifetime.end.p0(i64 8, ptr nonnull %5)
  resume { ptr, i32 } %21
}